target datalayout = "e-m:e-p270:32:32-p271:32:32-p272:64:64-i64:64-i128:128-f80:128-n8:16:32:64-S128"
target triple = "x86_64-pc-linux-gnu"

@hf_bssgp_ran_inf_req_pdu_t_ext_c = internal global i32 0, align 4
@hf_bssgp_ran_inf_pdu_t_ext_c = internal global i32 0, align 4
@hf_bssgp_rim_pdu_ind_ack = internal global i32 0, align 4
@g_bssgp_ran_inf_pdu_t_ext_c = internal global i32 0, align 4
@g_pdu_type = internal global i8 0, align 1

; Function Attrs: null_pointer_is_valid sspstrong uwtable
define internal zeroext i16 @de_bssgp_rim_pdu_indications(ptr noundef %0, ptr noundef %1, ptr noundef %2, i32 noundef %3, i32 noundef %4, ptr noundef %5, i32 noundef %6) #1 {
  %8 = alloca ptr, align 8
  %9 = alloca ptr, align 8
  %10 = alloca ptr, align 8
  %11 = alloca i32, align 4
  %12 = alloca i32, align 4
  %13 = alloca ptr, align 8
  %14 = alloca i32, align 4
  %15 = alloca i32, align 4
  store ptr %0, ptr %8, align 8
  store ptr %1, ptr %9, align 8
  store ptr %2, ptr %10, align 8
  store i32 %3, ptr %11, align 4
  store i32 %4, ptr %12, align 4
  store ptr %5, ptr %13, align 8
  store i32 %6, ptr %14, align 4
  call void @llvm.lifetime.start.p0(i64 4, ptr %15) #4
  %16 = load i32, ptr %11, align 4
  store i32 %16, ptr %15, align 4
  %17 = load i8, ptr @g_pdu_type, align 1
  %18 = zext i8 %17 to i32
  switch i32 %18, label %48 [
    i32 113, label %19
    i32 112, label %27
    i32 116, label %40
  ]

19:                                               ; preds = %7
  %20 = load ptr, ptr %9, align 8
  %21 = load i32, ptr @hf_bssgp_ran_inf_req_pdu_t_ext_c, align 4
  %22 = load ptr, ptr %8, align 8
  %23 = load i32, ptr %15, align 4
  %24 = call ptr @proto_tree_add_item(ptr noundef %20, i32 noundef %21, ptr noundef %22, i32 noundef %23, i32 noundef 1, i32 noundef 0)
  %25 = load i32, ptr %15, align 4
  %26 = add i32 %25, 1
  store i32 %26, ptr %15, align 4
  br label %49

27:                                               ; preds = %7
  %28 = load ptr, ptr %9, align 8
  %29 = load i32, ptr @hf_bssgp_ran_inf_pdu_t_ext_c, align 4
  %30 = load ptr, ptr %8, align 8
  %31 = load i32, ptr %15, align 4
  %32 = call ptr @proto_tree_add_item_ret_uint(ptr noundef %28, i32 noundef %29, ptr noundef %30, i32 noundef %31, i32 noundef 1, i32 noundef 0, ptr noundef @g_bssgp_ran_inf_pdu_t_ext_c)
  %33 = load ptr, ptr %9, align 8
  %34 = load i32, ptr @hf_bssgp_rim_pdu_ind_ack, align 4
  %35 = load ptr, ptr %8, align 8
  %36 = load i32, ptr %15, align 4
  %37 = call ptr @proto_tree_add_item(ptr noundef %33, i32 noundef %34, ptr noundef %35, i32 noundef %36, i32 noundef 1, i32 noundef 0)
  %38 = load i32, ptr %15, align 4
  %39 = add i32 %38, 1
  store i32 %39, ptr %15, align 4
  br label %49

40:                                               ; preds = %7
  %41 = load ptr, ptr %9, align 8
  %42 = load i32, ptr @hf_bssgp_rim_pdu_ind_ack, align 4
  %43 = load ptr, ptr %8, align 8
  %44 = load i32, ptr %15, align 4
  %45 = call ptr @proto_tree_add_item(ptr noundef %41, i32 noundef %42, ptr noundef %43, i32 noundef %44, i32 noundef 1, i32 noundef 0)
  %46 = load i32, ptr %15, align 4
  %47 = add i32 %46, 1
  store i32 %47, ptr %15, align 4
  br label %49

48:                                               ; preds = %7
  br label %49

49:                                               ; preds = %48, %40, %27, %19
  %50 = load i32, ptr %15, align 4
  %51 = load i32, ptr %11, align 4
  %52 = sub i32 %50, %51
  %53 = trunc i32 %52 to i16
  call void @llvm.lifetime.end.p0(i64 4, ptr %15) #4
  ret i16 %53
}