; Function Attrs: null_pointer_is_valid sspstrong uwtable
define internal noundef zeroext i16 @de_bssgp_rim_pdu_indications(ptr noundef %0, ptr noundef %1, ptr readnone captures(none) %2, i32 noundef %3, i32 %4, ptr readnone captures(none) %5, i32 %6) #1 {
  %8 = load i8, ptr @g_pdu_type, align 1
  switch i8 %8, label %16 [
    i8 113, label %.sink.split
    i8 112, label %9
    i8 116, label %12
  ]

9:                                                ; preds = %7
  %10 = load i32, ptr @hf_bssgp_ran_inf_pdu_t_ext_c, align 4
  %11 = tail call ptr @proto_tree_add_item_ret_uint(ptr noundef %1, i32 noundef %10, ptr noundef %0, i32 noundef %3, i32 noundef 1, i32 noundef 0, ptr noundef nonnull @g_bssgp_ran_inf_pdu_t_ext_c)
  br label %.sink.split

12:                                               ; preds = %7
  br label %.sink.split

.sink.split:                                      ; preds = %7, %9, %12
  %hf_bssgp_rim_pdu_ind_ack.sink = phi ptr [ @hf_bssgp_rim_pdu_ind_ack, %12 ], [ @hf_bssgp_rim_pdu_ind_ack, %9 ], [ @hf_bssgp_ran_inf_req_pdu_t_ext_c, %7 ]
  %13 = load i32, ptr %hf_bssgp_rim_pdu_ind_ack.sink, align 4
  %14 = tail call ptr @proto_tree_add_item(ptr noundef %1, i32 noundef %13, ptr noundef %0, i32 noundef %3, i32 noundef 1, i32 noundef 0)
  %15 = add i32 %3, 1
  br label %16

16:                                               ; preds = %.sink.split, %7
  %.0 = phi i32 [ %3, %7 ], [ %15, %.sink.split ]
  %17 = sub i32 %.0, %3
  %18 = trunc i32 %17 to i16
  ret i16 %18
}